target datalayout = "e-m:e-p270:32:32-p271:32:32-p272:64:64-i64:64-i128:128-f80:128-n8:16:32:64-S128"
target triple = "x86_64-pc-linux-gnu"

%class.G1MonotonicArenaFreePool = type { i32, ptr }
%"class.G1MonotonicArena::SegmentFreeList" = type { %class.LockFreeStack, i64, i64 }
%class.LockFreeStack = type { ptr }
%class.FormatBuffer = type { %class.FormatBufferBase, [256 x i8] }
%class.FormatBufferBase = type { ptr }
%"struct.Atomic::LoadImpl" = type { i8 }
%"struct.Atomic::PlatformLoad" = type { i8 }

@.str.5 = private unnamed_addr constant [22 x i8] c"  Free Pool: size %zu\00", align 1
@.str.6 = private unnamed_addr constant [7 x i8] c"    %s\00", align 1

; Function Attrs: mustprogress nounwind uwtable
define linkonce_odr hidden noundef i64 @_ZNK6Atomic12PlatformLoadILm8EEclImEET_PVKS3_(ptr noundef nonnull align 1 dereferenceable(1) %0, ptr noundef %1) #1 comdat align 2 {
  %3 = alloca ptr, align 8
  %4 = alloca ptr, align 8
  store ptr %0, ptr %3, align 8
  store ptr %1, ptr %4, align 8
  %5 = load ptr, ptr %4, align 8
  %6 = load volatile i64, ptr %5, align 8
  ret i64 %6
}

; Function Attrs: mustprogress nounwind uwtable
define linkonce_odr hidden noundef i64 @_ZNK6Atomic8LoadImplImNS_12PlatformLoadILm8EEEvEclEPVKm(ptr noundef nonnull align 1 dereferenceable(1) %0, ptr noundef %1) #1 comdat align 2 {
  %3 = alloca ptr, align 8
  %4 = alloca ptr, align 8
  %5 = alloca %"struct.Atomic::PlatformLoad", align 1
  store ptr %0, ptr %3, align 8
  store ptr %1, ptr %4, align 8
  %6 = load ptr, ptr %4, align 8
  %7 = call noundef i64 @_ZNK6Atomic12PlatformLoadILm8EEclImEET_PVKS3_(ptr noundef nonnull align 1 dereferenceable(1) %5, ptr noundef %6)
  ret i64 %7
}

; Function Attrs: mustprogress nounwind uwtable
define linkonce_odr hidden noundef i64 @_ZN6Atomic4loadImEET_PVKS1_(ptr noundef %0) #1 comdat align 2 {
  %2 = alloca ptr, align 8
  %3 = alloca %"struct.Atomic::LoadImpl", align 1
  store ptr %0, ptr %2, align 8
  %4 = load ptr, ptr %2, align 8
  %5 = call noundef i64 @_ZNK6Atomic8LoadImplImNS_12PlatformLoadILm8EEEvEclEPVKm(ptr noundef nonnull align 1 dereferenceable(1) %3, ptr noundef %4)
  ret i64 %5
}

; Function Attrs: mustprogress nounwind uwtable
define linkonce_odr hidden noundef i64 @_ZNK16G1MonotonicArena15SegmentFreeList8mem_sizeEv(ptr noundef nonnull align 8 dereferenceable(24) %0) #1 comdat align 2 {
  %2 = alloca ptr, align 8
  store ptr %0, ptr %2, align 8
  %3 = load ptr, ptr %2, align 8
  %4 = getelementptr inbounds %"class.G1MonotonicArena::SegmentFreeList", ptr %3, i32 0, i32 2
  %5 = call noundef i64 @_ZN6Atomic4loadImEET_PVKS1_(ptr noundef %4)
  ret i64 %5
}

; Function Attrs: mustprogress nounwind uwtable
define linkonce_odr hidden noundef ptr @_ZNK16FormatBufferBasecvPKcEv(ptr noundef nonnull align 8 dereferenceable(8) %0) #1 comdat align 2 {
  %2 = alloca ptr, align 8
  store ptr %0, ptr %2, align 8
  %3 = load ptr, ptr %2, align 8
  %4 = getelementptr inbounds %class.FormatBufferBase, ptr %3, i32 0, i32 0
  %5 = load ptr, ptr %4, align 8
  ret ptr %5
}

; Function Attrs: mustprogress nounwind uwtable
define hidden noundef i64 @_ZNK24G1MonotonicArenaFreePool8mem_sizeEv(ptr noundef nonnull align 8 dereferenceable(16) %0) #1 align 2 {
  %2 = alloca ptr, align 8
  %3 = alloca i64, align 8
  %4 = alloca i32, align 4
  store ptr %0, ptr %2, align 8
  %5 = load ptr, ptr %2, align 8
  store i64 0, ptr %3, align 8
  store i32 0, ptr %4, align 4
  br label %6

6:                                                ; preds = %20, %1
  %7 = load i32, ptr %4, align 4
  %8 = getelementptr inbounds %class.G1MonotonicArenaFreePool, ptr %5, i32 0, i32 0
  %9 = load i32, ptr %8, align 8
  %10 = icmp ult i32 %7, %9
  br i1 %10, label %11, label %23

11:                                               ; preds = %6
  %12 = getelementptr inbounds %class.G1MonotonicArenaFreePool, ptr %5, i32 0, i32 1
  %13 = load ptr, ptr %12, align 8
  %14 = load i32, ptr %4, align 4
  %15 = zext i32 %14 to i64
  %16 = getelementptr inbounds %"class.G1MonotonicArena::SegmentFreeList", ptr %13, i64 %15
  %17 = call noundef i64 @_ZNK16G1MonotonicArena15SegmentFreeList8mem_sizeEv(ptr noundef nonnull align 8 dereferenceable(24) %16)
  %18 = load i64, ptr %3, align 8
  %19 = add i64 %18, %17
  store i64 %19, ptr %3, align 8
  br label %20

20:                                               ; preds = %11
  %21 = load i32, ptr %4, align 4
  %22 = add i32 %21, 1
  store i32 %22, ptr %4, align 4
  br label %6, !llvm.loop !14

23:                                               ; preds = %6
  %24 = load i64, ptr %3, align 8
  ret i64 %24
}

; Function Attrs: mustprogress nounwind uwtable
define hidden void @_ZNK24G1MonotonicArenaFreePool8print_onEP12outputStream(ptr noundef nonnull align 8 dereferenceable(16) %0, ptr noundef %1) #1 align 2 {
  %3 = alloca ptr, align 8
  %4 = alloca ptr, align 8
  %5 = alloca i32, align 4
  %6 = alloca %class.FormatBuffer, align 8
  store ptr %0, ptr %3, align 8
  store ptr %1, ptr %4, align 8
  %7 = load ptr, ptr %3, align 8
  %8 = load ptr, ptr %4, align 8
  %9 = call noundef i64 @_ZNK24G1MonotonicArenaFreePool8mem_sizeEv(ptr noundef nonnull align 8 dereferenceable(16) %7)
  call void (ptr, ptr, ...) @_ZN12outputStream8print_crEPKcz(ptr noundef nonnull align 8 dereferenceable(56) %8, ptr noundef @.str.5, i64 noundef %9)
  store i32 0, ptr %5, align 4
  br label %10

10:                                               ; preds = %25, %2
  %11 = load i32, ptr %5, align 4
  %12 = getelementptr inbounds %class.G1MonotonicArenaFreePool, ptr %7, i32 0, i32 0
  %13 = load i32, ptr %12, align 8
  %14 = icmp ult i32 %11, %13
  br i1 %14, label %15, label %28

15:                                               ; preds = %10
  %16 = load i32, ptr %5, align 4
  %17 = call noundef ptr @_ZN22G1CardSetConfiguration24mem_object_type_name_strEj(i32 noundef %16)
  call void (ptr, ptr, ...) @_ZN12FormatBufferILm256EEC2EPKcz(ptr noundef nonnull align 8 dereferenceable(264) %6, ptr noundef @.str.6, ptr noundef %17)
  %18 = getelementptr inbounds %class.G1MonotonicArenaFreePool, ptr %7, i32 0, i32 1
  %19 = load ptr, ptr %18, align 8
  %20 = load i32, ptr %5, align 4
  %21 = zext i32 %20 to i64
  %22 = getelementptr inbounds %"class.G1MonotonicArena::SegmentFreeList", ptr %19, i64 %21
  %23 = load ptr, ptr %4, align 8
  %24 = call noundef ptr @_ZNK16FormatBufferBasecvPKcEv(ptr noundef nonnull align 8 dereferenceable(8) %6)
  call void @_ZN16G1MonotonicArena15SegmentFreeList8print_onEP12outputStreamPKc(ptr noundef nonnull align 8 dereferenceable(24) %22, ptr noundef %23, ptr noundef %24)
  br label %25

25:                                               ; preds = %15
  %26 = load i32, ptr %5, align 4
  %27 = add i32 %26, 1
  store i32 %27, ptr %5, align 4
  br label %10, !llvm.loop !15

28:                                               ; preds = %10
  ret void
}