; Function Attrs: mustprogress nounwind uwtable
define hidden void @_ZNK24G1MonotonicArenaFreePool8print_onEP12outputStream(ptr nocapture noundef nonnull readonly align 8 dereferenceable(16) %0, ptr noundef %1) local_unnamed_addr #1 align 2 {
  %3 = alloca %class.FormatBuffer, align 8
  %4 = load i32, ptr %0, align 8
  %.not.i = icmp eq i32 %4, 0
  br i1 %.not.i, label %_ZNK24G1MonotonicArenaFreePool8mem_sizeEv.exit, label %.lr.ph.i

.lr.ph.i:                                         ; preds = %2
  %5 = getelementptr inbounds i8, ptr %0, i64 8
  %6 = load ptr, ptr %5, align 8
  %wide.trip.count.i = zext i32 %4 to i64
  br label %7

7:                                                ; preds = %7, %.lr.ph.i
  %indvars.iv.i = phi i64 [ 0, %.lr.ph.i ], [ %indvars.iv.next.i, %7 ]
  %.056.i = phi i64 [ 0, %.lr.ph.i ], [ %10, %7 ]
  %8 = getelementptr inbounds %"class.G1MonotonicArena::SegmentFreeList", ptr %6, i64 %indvars.iv.i, i32 2
  %9 = load volatile i64, ptr %8, align 8
  %10 = add i64 %9, %.056.i
  %indvars.iv.next.i = add nuw nsw i64 %indvars.iv.i, 1
  %exitcond.not.i = icmp eq i64 %indvars.iv.next.i, %wide.trip.count.i
  br i1 %exitcond.not.i, label %_ZNK24G1MonotonicArenaFreePool8mem_sizeEv.exit, label %7, !llvm.loop !13

_ZNK24G1MonotonicArenaFreePool8mem_sizeEv.exit:   ; preds = %7, %2
  %.05.lcssa.i = phi i64 [ 0, %2 ], [ %10, %7 ]
  tail call void (ptr, ptr, ...) @_ZN12outputStream8print_crEPKcz(ptr noundef nonnull align 8 dereferenceable(56) %1, ptr noundef nonnull @.str.5, i64 noundef %.05.lcssa.i) #8
  %11 = load i32, ptr %0, align 8
  %.not = icmp eq i32 %11, 0
  br i1 %.not, label %._crit_edge, label %.lr.ph

.lr.ph:                                           ; preds = %_ZNK24G1MonotonicArenaFreePool8mem_sizeEv.exit
  %12 = getelementptr inbounds i8, ptr %0, i64 8
  br label %13

13:                                               ; preds = %.lr.ph, %13
  %indvars.iv = phi i64 [ 0, %.lr.ph ], [ %indvars.iv.next, %13 ]
  %14 = trunc nuw i64 %indvars.iv to i32
  %15 = call noundef ptr @_ZN22G1CardSetConfiguration24mem_object_type_name_strEj(i32 noundef %14) #8
  call void (ptr, ptr, ...) @_ZN12FormatBufferILm256EEC2EPKcz(ptr noundef nonnull align 8 dereferenceable(264) %3, ptr noundef nonnull @.str.6, ptr noundef %15)
  %16 = load ptr, ptr %12, align 8
  %17 = getelementptr inbounds %"class.G1MonotonicArena::SegmentFreeList", ptr %16, i64 %indvars.iv
  %18 = load ptr, ptr %3, align 8
  call void @_ZN16G1MonotonicArena15SegmentFreeList8print_onEP12outputStreamPKc(ptr noundef nonnull align 8 dereferenceable(24) %17, ptr noundef nonnull %1, ptr noundef %18) #8
  %indvars.iv.next = add nuw nsw i64 %indvars.iv, 1
  %19 = load i32, ptr %0, align 8
  %20 = zext i32 %19 to i64
  %21 = icmp ult i64 %indvars.iv.next, %20
  br i1 %21, label %13, label %._crit_edge, !llvm.loop !14

._crit_edge:                                      ; preds = %13, %_ZNK24G1MonotonicArenaFreePool8mem_sizeEv.exit
  ret void
}